target datalayout = "e-m:e-p270:32:32-p271:32:32-p272:64:64-i64:64-i128:128-f80:128-n8:16:32:64-S128"
target triple = "x86_64-pc-linux-gnu"

%struct.Abc_Obj_t_ = type { ptr, ptr, i32, i32, %struct.Vec_Int_t_, %struct.Vec_Int_t_, %union.anon, %union.anon.0 }
%struct.Vec_Int_t_ = type { i32, i32, ptr }
%union.anon = type { ptr }
%union.anon.0 = type { ptr }
%struct.Abc_Ntk_t_ = type { i32, i32, ptr, ptr, ptr, ptr, ptr, ptr, ptr, ptr, ptr, ptr, ptr, [11 x i32], i32, i32, i32, i32, ptr, i32, ptr, ptr, i32, i32, i32, double, i32, %struct.Vec_Int_t_, ptr, ptr, ptr, ptr, ptr, float, i32, ptr, ptr, ptr, ptr, ptr, ptr, ptr, ptr, ptr, ptr, ptr, ptr, ptr, ptr, ptr, ptr, ptr, ptr, ptr, ptr, ptr, ptr }
%struct.Vec_Ptr_t_ = type { i32, i32, ptr }
%struct.Aig_Obj_t_ = type { %union.anon.1, ptr, ptr, i64, i32, i32, %union.anon.2 }
%union.anon.1 = type { ptr }
%union.anon.2 = type { ptr }

; Function Attrs: inlinehint nounwind uwtable
define internal ptr @Vec_PtrEntry(ptr noundef %0, i32 noundef %1) #2 {
  %3 = alloca ptr, align 8
  %4 = alloca i32, align 4
  store ptr %0, ptr %3, align 8, !tbaa !50
  store i32 %1, ptr %4, align 4, !tbaa !12
  %5 = load ptr, ptr %3, align 8, !tbaa !50
  %6 = getelementptr inbounds nuw %struct.Vec_Ptr_t_, ptr %5, i32 0, i32 2
  %7 = load ptr, ptr %6, align 8, !tbaa !38
  %8 = load i32, ptr %4, align 4, !tbaa !12
  %9 = sext i32 %8 to i64
  %10 = getelementptr inbounds ptr, ptr %7, i64 %9
  %11 = load ptr, ptr %10, align 8, !tbaa !41
  ret ptr %11
}

; Function Attrs: inlinehint nounwind uwtable
define internal ptr @Vec_IntAlloc(i32 noundef %0) #2 {
  %2 = alloca i32, align 4
  %3 = alloca ptr, align 8
  store i32 %0, ptr %2, align 4, !tbaa !12
  call void @llvm.lifetime.start.p0(i64 8, ptr %3) #8
  %4 = call noalias ptr @malloc(i64 noundef 16) #9
  store ptr %4, ptr %3, align 8, !tbaa !98
  %5 = load i32, ptr %2, align 4, !tbaa !12
  %6 = icmp sgt i32 %5, 0
  br i1 %6, label %7, label %11

7:                                                ; preds = %1
  %8 = load i32, ptr %2, align 4, !tbaa !12
  %9 = icmp slt i32 %8, 16
  br i1 %9, label %10, label %11

10:                                               ; preds = %7
  store i32 16, ptr %2, align 4, !tbaa !12
  br label %11

11:                                               ; preds = %10, %7, %1
  %12 = load ptr, ptr %3, align 8, !tbaa !98
  %13 = getelementptr inbounds nuw %struct.Vec_Int_t_, ptr %12, i32 0, i32 1
  store i32 0, ptr %13, align 4, !tbaa !108
  %14 = load i32, ptr %2, align 4, !tbaa !12
  %15 = load ptr, ptr %3, align 8, !tbaa !98
  %16 = getelementptr inbounds nuw %struct.Vec_Int_t_, ptr %15, i32 0, i32 0
  store i32 %14, ptr %16, align 8, !tbaa !122
  %17 = load ptr, ptr %3, align 8, !tbaa !98
  %18 = getelementptr inbounds nuw %struct.Vec_Int_t_, ptr %17, i32 0, i32 0
  %19 = load i32, ptr %18, align 8, !tbaa !122
  %20 = icmp ne i32 %19, 0
  br i1 %20, label %21, label %28

21:                                               ; preds = %11
  %22 = load ptr, ptr %3, align 8, !tbaa !98
  %23 = getelementptr inbounds nuw %struct.Vec_Int_t_, ptr %22, i32 0, i32 0
  %24 = load i32, ptr %23, align 8, !tbaa !122
  %25 = sext i32 %24 to i64
  %26 = mul i64 4, %25
  %27 = call noalias ptr @malloc(i64 noundef %26) #9
  br label %29

28:                                               ; preds = %11
  br label %29

29:                                               ; preds = %28, %21
  %30 = phi ptr [ %27, %21 ], [ null, %28 ]
  %31 = load ptr, ptr %3, align 8, !tbaa !98
  %32 = getelementptr inbounds nuw %struct.Vec_Int_t_, ptr %31, i32 0, i32 2
  store ptr %30, ptr %32, align 8, !tbaa !99
  %33 = load ptr, ptr %3, align 8, !tbaa !98
  call void @llvm.lifetime.end.p0(i64 8, ptr %3) #8
  ret ptr %33
}

; Function Attrs: inlinehint nounwind uwtable
define internal void @Vec_IntFree(ptr noundef %0) #2 {
  %2 = alloca ptr, align 8
  store ptr %0, ptr %2, align 8, !tbaa !98
  %3 = load ptr, ptr %2, align 8, !tbaa !98
  %4 = getelementptr inbounds nuw %struct.Vec_Int_t_, ptr %3, i32 0, i32 2
  %5 = load ptr, ptr %4, align 8, !tbaa !99
  %6 = icmp ne ptr %5, null
  br i1 %6, label %7, label %13

7:                                                ; preds = %1
  %8 = load ptr, ptr %2, align 8, !tbaa !98
  %9 = getelementptr inbounds nuw %struct.Vec_Int_t_, ptr %8, i32 0, i32 2
  %10 = load ptr, ptr %9, align 8, !tbaa !99
  call void @free(ptr noundef %10) #8
  %11 = load ptr, ptr %2, align 8, !tbaa !98
  %12 = getelementptr inbounds nuw %struct.Vec_Int_t_, ptr %11, i32 0, i32 2
  store ptr null, ptr %12, align 8, !tbaa !99
  br label %14

13:                                               ; preds = %1
  br label %14

14:                                               ; preds = %13, %7
  %15 = load ptr, ptr %2, align 8, !tbaa !98
  %16 = icmp ne ptr %15, null
  br i1 %16, label %17, label %19

17:                                               ; preds = %14
  %18 = load ptr, ptr %2, align 8, !tbaa !98
  call void @free(ptr noundef %18) #8
  store ptr null, ptr %2, align 8, !tbaa !98
  br label %20

19:                                               ; preds = %14
  br label %20

20:                                               ; preds = %19, %17
  ret void
}

; Function Attrs: inlinehint nounwind uwtable
define internal ptr @Aig_Regular(ptr noundef %0) #2 {
  %2 = alloca ptr, align 8
  store ptr %0, ptr %2, align 8, !tbaa !103
  %3 = load ptr, ptr %2, align 8, !tbaa !103
  %4 = ptrtoint ptr %3 to i64
  %5 = and i64 %4, -2
  %6 = inttoptr i64 %5 to ptr
  ret ptr %6
}

; Function Attrs: inlinehint nounwind uwtable
define internal i32 @Abc_NtkLatchNum(ptr noundef %0) #2 {
  %2 = alloca ptr, align 8
  store ptr %0, ptr %2, align 8, !tbaa !44
  %3 = load ptr, ptr %2, align 8, !tbaa !44
  %4 = getelementptr inbounds nuw %struct.Abc_Ntk_t_, ptr %3, i32 0, i32 13
  %5 = getelementptr inbounds [11 x i32], ptr %4, i64 0, i64 8
  %6 = load i32, ptr %5, align 8, !tbaa !12
  ret i32 %6
}

; Function Attrs: inlinehint nounwind uwtable
define internal ptr @Abc_ObjRegular(ptr noundef %0) #2 {
  %2 = alloca ptr, align 8
  store ptr %0, ptr %2, align 8, !tbaa !3
  %3 = load ptr, ptr %2, align 8, !tbaa !3
  %4 = ptrtoint ptr %3 to i64
  %5 = and i64 %4, -2
  %6 = inttoptr i64 %5 to ptr
  ret ptr %6
}

; Function Attrs: inlinehint nounwind uwtable
define internal ptr @Abc_NtkObj(ptr noundef %0, i32 noundef %1) #2 {
  %3 = alloca ptr, align 8
  %4 = alloca i32, align 4
  store ptr %0, ptr %3, align 8, !tbaa !44
  store i32 %1, ptr %4, align 4, !tbaa !12
  %5 = load ptr, ptr %3, align 8, !tbaa !44
  %6 = getelementptr inbounds nuw %struct.Abc_Ntk_t_, ptr %5, i32 0, i32 5
  %7 = load ptr, ptr %6, align 8, !tbaa !26
  %8 = load i32, ptr %4, align 4, !tbaa !12
  %9 = call ptr @Vec_PtrEntry(ptr noundef %7, i32 noundef %8)
  ret ptr %9
}

; Function Attrs: inlinehint nounwind uwtable
define internal i32 @Vec_PtrSize(ptr noundef %0) #2 {
  %2 = alloca ptr, align 8
  store ptr %0, ptr %2, align 8, !tbaa !50
  %3 = load ptr, ptr %2, align 8, !tbaa !50
  %4 = getelementptr inbounds nuw %struct.Vec_Ptr_t_, ptr %3, i32 0, i32 1
  %5 = load i32, ptr %4, align 4, !tbaa !64
  ret i32 %5
}

; Function Attrs: inlinehint nounwind uwtable
define internal ptr @Vec_IntStart(i32 noundef %0) #2 {
  %2 = alloca i32, align 4
  %3 = alloca ptr, align 8
  store i32 %0, ptr %2, align 4, !tbaa !12
  call void @llvm.lifetime.start.p0(i64 8, ptr %3) #8
  %4 = load i32, ptr %2, align 4, !tbaa !12
  %5 = call ptr @Vec_IntAlloc(i32 noundef %4)
  store ptr %5, ptr %3, align 8, !tbaa !98
  %6 = load i32, ptr %2, align 4, !tbaa !12
  %7 = load ptr, ptr %3, align 8, !tbaa !98
  %8 = getelementptr inbounds nuw %struct.Vec_Int_t_, ptr %7, i32 0, i32 1
  store i32 %6, ptr %8, align 4, !tbaa !108
  %9 = load ptr, ptr %3, align 8, !tbaa !98
  %10 = getelementptr inbounds nuw %struct.Vec_Int_t_, ptr %9, i32 0, i32 2
  %11 = load ptr, ptr %10, align 8, !tbaa !99
  %12 = icmp ne ptr %11, null
  br i1 %12, label %13, label %20

13:                                               ; preds = %1
  %14 = load ptr, ptr %3, align 8, !tbaa !98
  %15 = getelementptr inbounds nuw %struct.Vec_Int_t_, ptr %14, i32 0, i32 2
  %16 = load ptr, ptr %15, align 8, !tbaa !99
  %17 = load i32, ptr %2, align 4, !tbaa !12
  %18 = sext i32 %17 to i64
  %19 = mul i64 4, %18
  call void @llvm.memset.p0.i64(ptr align 4 %16, i8 0, i64 %19, i1 false)
  br label %20

20:                                               ; preds = %13, %1
  %21 = load ptr, ptr %3, align 8, !tbaa !98
  call void @llvm.lifetime.end.p0(i64 8, ptr %3) #8
  ret ptr %21
}

; Function Attrs: inlinehint nounwind uwtable
define internal i32 @Abc_NtkObjNumMax(ptr noundef %0) #2 {
  %2 = alloca ptr, align 8
  store ptr %0, ptr %2, align 8, !tbaa !44
  %3 = load ptr, ptr %2, align 8, !tbaa !44
  %4 = getelementptr inbounds nuw %struct.Abc_Ntk_t_, ptr %3, i32 0, i32 5
  %5 = load ptr, ptr %4, align 8, !tbaa !26
  %6 = call i32 @Vec_PtrSize(ptr noundef %5)
  ret i32 %6
}

; Function Attrs: nounwind uwtable
define ptr @Abc_NtkPowerEstimate(ptr noundef %0, i32 noundef %1) #0 {
  %3 = alloca ptr, align 8
  %4 = alloca i32, align 4
  %5 = alloca ptr, align 8
  %6 = alloca ptr, align 8
  %7 = alloca ptr, align 8
  %8 = alloca ptr, align 8
  %9 = alloca ptr, align 8
  %10 = alloca ptr, align 8
  %11 = alloca ptr, align 8
  %12 = alloca ptr, align 8
  %13 = alloca ptr, align 8
  %14 = alloca i32, align 4
  store ptr %0, ptr %3, align 8, !tbaa !44
  store i32 %1, ptr %4, align 4, !tbaa !12
  call void @llvm.lifetime.start.p0(i64 8, ptr %5) #8
  call void @llvm.lifetime.start.p0(i64 8, ptr %6) #8
  call void @llvm.lifetime.start.p0(i64 8, ptr %7) #8
  call void @llvm.lifetime.start.p0(i64 8, ptr %8) #8
  call void @llvm.lifetime.start.p0(i64 8, ptr %9) #8
  call void @llvm.lifetime.start.p0(i64 8, ptr %10) #8
  call void @llvm.lifetime.start.p0(i64 8, ptr %11) #8
  call void @llvm.lifetime.start.p0(i64 8, ptr %12) #8
  call void @llvm.lifetime.start.p0(i64 8, ptr %13) #8
  call void @llvm.lifetime.start.p0(i64 4, ptr %14) #8
  %15 = load ptr, ptr %3, align 8, !tbaa !44
  %16 = call i32 @Abc_NtkObjNumMax(ptr noundef %15)
  %17 = call ptr @Vec_IntStart(i32 noundef %16)
  store ptr %17, ptr %5, align 8, !tbaa !98
  %18 = load ptr, ptr %5, align 8, !tbaa !98
  %19 = getelementptr inbounds nuw %struct.Vec_Int_t_, ptr %18, i32 0, i32 2
  %20 = load ptr, ptr %19, align 8, !tbaa !99
  store ptr %20, ptr %7, align 8, !tbaa !10
  %21 = load ptr, ptr %3, align 8, !tbaa !44
  %22 = call ptr @Abc_NtkStrash(ptr noundef %21, i32 noundef 0, i32 noundef 1, i32 noundef 0)
  store ptr %22, ptr %9, align 8, !tbaa !44
  store i32 0, ptr %14, align 4, !tbaa !12
  br label %23

23:                                               ; preds = %54, %2
  %24 = load i32, ptr %14, align 4, !tbaa !12
  %25 = load ptr, ptr %3, align 8, !tbaa !44
  %26 = getelementptr inbounds nuw %struct.Abc_Ntk_t_, ptr %25, i32 0, i32 5
  %27 = load ptr, ptr %26, align 8, !tbaa !26
  %28 = call i32 @Vec_PtrSize(ptr noundef %27)
  %29 = icmp slt i32 %24, %28
  br i1 %29, label %30, label %34

30:                                               ; preds = %23
  %31 = load ptr, ptr %3, align 8, !tbaa !44
  %32 = load i32, ptr %14, align 4, !tbaa !12
  %33 = call ptr @Abc_NtkObj(ptr noundef %31, i32 noundef %32)
  store ptr %33, ptr %12, align 8, !tbaa !3
  br label %34

34:                                               ; preds = %30, %23
  %35 = phi i1 [ false, %23 ], [ true, %30 ]
  br i1 %35, label %36, label %57

36:                                               ; preds = %34
  %37 = load ptr, ptr %12, align 8, !tbaa !3
  %38 = icmp eq ptr %37, null
  br i1 %38, label %39, label %40

39:                                               ; preds = %36
  br label %53

40:                                               ; preds = %36
  %41 = load ptr, ptr %12, align 8, !tbaa !3
  %42 = getelementptr inbounds nuw %struct.Abc_Obj_t_, ptr %41, i32 0, i32 7
  %43 = load ptr, ptr %42, align 8, !tbaa !68
  %44 = call ptr @Abc_ObjRegular(ptr noundef %43)
  %45 = getelementptr inbounds nuw %struct.Abc_Obj_t_, ptr %44, i32 0, i32 3
  %46 = load i32, ptr %45, align 4
  %47 = and i32 %46, 15
  %48 = icmp eq i32 %47, 0
  br i1 %48, label %49, label %52

49:                                               ; preds = %40
  %50 = load ptr, ptr %12, align 8, !tbaa !3
  %51 = getelementptr inbounds nuw %struct.Abc_Obj_t_, ptr %50, i32 0, i32 7
  store ptr null, ptr %51, align 8, !tbaa !68
  br label %52

52:                                               ; preds = %49, %40
  br label %53

53:                                               ; preds = %52, %39
  br label %54

54:                                               ; preds = %53
  %55 = load i32, ptr %14, align 4, !tbaa !12
  %56 = add nsw i32 %55, 1
  store i32 %56, ptr %14, align 4, !tbaa !12
  br label %23, !llvm.loop !100

57:                                               ; preds = %34
  %58 = load ptr, ptr %9, align 8, !tbaa !44
  %59 = load ptr, ptr %3, align 8, !tbaa !44
  %60 = call i32 @Abc_NtkLatchNum(ptr noundef %59)
  %61 = icmp sgt i32 %60, 0
  %62 = zext i1 %61 to i32
  %63 = call ptr @Abc_NtkToDar(ptr noundef %58, i32 noundef 0, i32 noundef %62)
  store ptr %63, ptr %10, align 8, !tbaa !101
  %64 = load ptr, ptr %10, align 8, !tbaa !101
  %65 = load i32, ptr %4, align 4, !tbaa !12
  %66 = call ptr @Saig_ManComputeSwitchProbs(ptr noundef %64, i32 noundef 48, i32 noundef 16, i32 noundef %65)
  store ptr %66, ptr %6, align 8, !tbaa !98
  %67 = load ptr, ptr %6, align 8, !tbaa !98
  %68 = getelementptr inbounds nuw %struct.Vec_Int_t_, ptr %67, i32 0, i32 2
  %69 = load ptr, ptr %68, align 8, !tbaa !99
  store ptr %69, ptr %8, align 8, !tbaa !10
  store i32 0, ptr %14, align 4, !tbaa !12
  br label %70

70:                                               ; preds = %115, %57
  %71 = load i32, ptr %14, align 4, !tbaa !12
  %72 = load ptr, ptr %3, align 8, !tbaa !44
  %73 = getelementptr inbounds nuw %struct.Abc_Ntk_t_, ptr %72, i32 0, i32 5
  %74 = load ptr, ptr %73, align 8, !tbaa !26
  %75 = call i32 @Vec_PtrSize(ptr noundef %74)
  %76 = icmp slt i32 %71, %75
  br i1 %76, label %77, label %81

77:                                               ; preds = %70
  %78 = load ptr, ptr %3, align 8, !tbaa !44
  %79 = load i32, ptr %14, align 4, !tbaa !12
  %80 = call ptr @Abc_NtkObj(ptr noundef %78, i32 noundef %79)
  store ptr %80, ptr %12, align 8, !tbaa !3
  br label %81

81:                                               ; preds = %77, %70
  %82 = phi i1 [ false, %70 ], [ true, %77 ]
  br i1 %82, label %83, label %118

83:                                               ; preds = %81
  %84 = load ptr, ptr %12, align 8, !tbaa !3
  %85 = icmp eq ptr %84, null
  br i1 %85, label %86, label %87

86:                                               ; preds = %83
  br label %114

87:                                               ; preds = %83
  %88 = load ptr, ptr %12, align 8, !tbaa !3
  %89 = getelementptr inbounds nuw %struct.Abc_Obj_t_, ptr %88, i32 0, i32 7
  %90 = load ptr, ptr %89, align 8, !tbaa !68
  %91 = call ptr @Abc_ObjRegular(ptr noundef %90)
  store ptr %91, ptr %13, align 8, !tbaa !3
  %92 = icmp ne ptr %91, null
  br i1 %92, label %93, label %113

93:                                               ; preds = %87
  %94 = load ptr, ptr %13, align 8, !tbaa !3
  %95 = getelementptr inbounds nuw %struct.Abc_Obj_t_, ptr %94, i32 0, i32 7
  %96 = load ptr, ptr %95, align 8, !tbaa !68
  %97 = call ptr @Aig_Regular(ptr noundef %96)
  store ptr %97, ptr %11, align 8, !tbaa !103
  %98 = icmp ne ptr %97, null
  br i1 %98, label %99, label %113

99:                                               ; preds = %93
  %100 = load ptr, ptr %8, align 8, !tbaa !10
  %101 = load ptr, ptr %11, align 8, !tbaa !103
  %102 = getelementptr inbounds nuw %struct.Aig_Obj_t_, ptr %101, i32 0, i32 5
  %103 = load i32, ptr %102, align 4, !tbaa !105
  %104 = sext i32 %103 to i64
  %105 = getelementptr inbounds float, ptr %100, i64 %104
  %106 = load float, ptr %105, align 4, !tbaa !14
  %107 = load ptr, ptr %7, align 8, !tbaa !10
  %108 = load ptr, ptr %12, align 8, !tbaa !3
  %109 = getelementptr inbounds nuw %struct.Abc_Obj_t_, ptr %108, i32 0, i32 2
  %110 = load i32, ptr %109, align 8, !tbaa !43
  %111 = sext i32 %110 to i64
  %112 = getelementptr inbounds float, ptr %107, i64 %111
  store float %106, ptr %112, align 4, !tbaa !14
  br label %113

113:                                              ; preds = %99, %93, %87
  br label %114

114:                                              ; preds = %113, %86
  br label %115

115:                                              ; preds = %114
  %116 = load i32, ptr %14, align 4, !tbaa !12
  %117 = add nsw i32 %116, 1
  store i32 %117, ptr %14, align 4, !tbaa !12
  br label %70, !llvm.loop !107

118:                                              ; preds = %81
  %119 = load ptr, ptr %6, align 8, !tbaa !98
  call void @Vec_IntFree(ptr noundef %119)
  %120 = load ptr, ptr %10, align 8, !tbaa !101
  call void @Aig_ManStop(ptr noundef %120)
  %121 = load ptr, ptr %9, align 8, !tbaa !44
  call void @Abc_NtkDelete(ptr noundef %121)
  %122 = load ptr, ptr %5, align 8, !tbaa !98
  call void @llvm.lifetime.end.p0(i64 4, ptr %14) #8
  call void @llvm.lifetime.end.p0(i64 8, ptr %13) #8
  call void @llvm.lifetime.end.p0(i64 8, ptr %12) #8
  call void @llvm.lifetime.end.p0(i64 8, ptr %11) #8
  call void @llvm.lifetime.end.p0(i64 8, ptr %10) #8
  call void @llvm.lifetime.end.p0(i64 8, ptr %9) #8
  call void @llvm.lifetime.end.p0(i64 8, ptr %8) #8
  call void @llvm.lifetime.end.p0(i64 8, ptr %7) #8
  call void @llvm.lifetime.end.p0(i64 8, ptr %6) #8
  call void @llvm.lifetime.end.p0(i64 8, ptr %5) #8
  ret ptr %122
}