; Function Attrs: nounwind uwtable
define noalias noundef ptr @Abc_NtkPowerEstimate(ptr noundef %0, i32 noundef %1) local_unnamed_addr #2 {
  %3 = getelementptr i8, ptr %0, i64 32
  %.val39 = load ptr, ptr %3, align 8, !tbaa !15
  %4 = getelementptr i8, ptr %.val39, i64 4
  %.val39.val = load i32, ptr %4, align 4, !tbaa !42
  %5 = tail call noalias dereferenceable_or_null(16) ptr @malloc(i64 noundef 16) #16
  %6 = add i32 %.val39.val, -1
  %or.cond.i.i = icmp ult i32 %6, 15
  %spec.store.select.i.i = select i1 %or.cond.i.i, i32 16, i32 %.val39.val
  %7 = getelementptr inbounds nuw i8, ptr %5, i64 4
  store i32 %spec.store.select.i.i, ptr %5, align 8, !tbaa !60
  %.not.i.i = icmp eq i32 %spec.store.select.i.i, 0
  br i1 %.not.i.i, label %Vec_IntAlloc.exit.thread.i, label %Vec_IntAlloc.exit.i

Vec_IntAlloc.exit.thread.i:                       ; preds = %2
  %8 = getelementptr inbounds nuw i8, ptr %5, i64 8
  store ptr null, ptr %8, align 8, !tbaa !61
  store i32 %.val39.val, ptr %7, align 4, !tbaa !59
  br label %Vec_IntStart.exit

Vec_IntAlloc.exit.i:                              ; preds = %2
  %9 = sext i32 %spec.store.select.i.i to i64
  %10 = shl nsw i64 %9, 2
  %11 = tail call noalias ptr @malloc(i64 noundef %10) #16
  %12 = getelementptr inbounds nuw i8, ptr %5, i64 8
  store ptr %11, ptr %12, align 8, !tbaa !61
  store i32 %.val39.val, ptr %7, align 4, !tbaa !59
  %.not.i = icmp eq ptr %11, null
  br i1 %.not.i, label %Vec_IntStart.exit, label %13

13:                                               ; preds = %Vec_IntAlloc.exit.i
  %14 = sext i32 %.val39.val to i64
  %15 = shl nsw i64 %14, 2
  tail call void @llvm.memset.p0.i64(ptr nonnull align 4 %11, i8 0, i64 %15, i1 false)
  br label %Vec_IntStart.exit

Vec_IntStart.exit:                                ; preds = %Vec_IntAlloc.exit.thread.i, %Vec_IntAlloc.exit.i, %13
  %16 = phi ptr [ null, %Vec_IntAlloc.exit.thread.i ], [ null, %Vec_IntAlloc.exit.i ], [ %11, %13 ]
  %17 = tail call ptr @Abc_NtkStrash(ptr noundef nonnull %0, i32 noundef 0, i32 noundef 1, i32 noundef 0) #15
  %18 = load ptr, ptr %3, align 8, !tbaa !15
  %19 = getelementptr i8, ptr %18, i64 4
  %.val3844 = load i32, ptr %19, align 4, !tbaa !42
  %20 = icmp sgt i32 %.val3844, 0
  br i1 %20, label %.lr.ph, label %.critedge

.lr.ph:                                           ; preds = %Vec_IntStart.exit, %37
  %21 = phi ptr [ %38, %37 ], [ %18, %Vec_IntStart.exit ]
  %indvars.iv = phi i64 [ %indvars.iv.next, %37 ], [ 0, %Vec_IntStart.exit ]
  %22 = getelementptr i8, ptr %21, i64 8
  %.val41.val = load ptr, ptr %22, align 8, !tbaa !29
  %23 = getelementptr inbounds nuw ptr, ptr %.val41.val, i64 %indvars.iv
  %24 = load ptr, ptr %23, align 8, !tbaa !32
  %25 = icmp eq ptr %24, null
  br i1 %25, label %37, label %26

26:                                               ; preds = %.lr.ph
  %27 = getelementptr inbounds nuw i8, ptr %24, i64 64
  %28 = load ptr, ptr %27, align 8, !tbaa !62
  %29 = ptrtoint ptr %28 to i64
  %30 = and i64 %29, -2
  %31 = inttoptr i64 %30 to ptr
  %32 = getelementptr inbounds nuw i8, ptr %31, i64 20
  %33 = load i32, ptr %32, align 4
  %34 = and i32 %33, 15
  %35 = icmp eq i32 %34, 0
  br i1 %35, label %36, label %37

36:                                               ; preds = %26
  store ptr null, ptr %27, align 8, !tbaa !62
  %.pre = load ptr, ptr %3, align 8, !tbaa !15
  br label %37

37:                                               ; preds = %.lr.ph, %36, %26
  %38 = phi ptr [ %21, %.lr.ph ], [ %.pre, %36 ], [ %21, %26 ]
  %indvars.iv.next = add nuw nsw i64 %indvars.iv, 1
  %39 = getelementptr i8, ptr %38, i64 4
  %.val38 = load i32, ptr %39, align 4, !tbaa !42
  %40 = sext i32 %.val38 to i64
  %41 = icmp slt i64 %indvars.iv.next, %40
  br i1 %41, label %.lr.ph, label %.critedge, !llvm.loop !92

.critedge:                                        ; preds = %37, %Vec_IntStart.exit
  %42 = getelementptr i8, ptr %0, i64 128
  %.val42 = load i32, ptr %42, align 8, !tbaa !31
  %43 = icmp sgt i32 %.val42, 0
  %44 = zext i1 %43 to i32
  %45 = tail call ptr @Abc_NtkToDar(ptr noundef %17, i32 noundef 0, i32 noundef %44) #15
  %46 = tail call ptr @Saig_ManComputeSwitchProbs(ptr noundef %45, i32 noundef 48, i32 noundef 16, i32 noundef %1) #15
  %47 = getelementptr inbounds nuw i8, ptr %46, i64 8
  %48 = load ptr, ptr %47, align 8, !tbaa !61
  %49 = load ptr, ptr %3, align 8, !tbaa !15
  %50 = getelementptr i8, ptr %49, i64 4
  %.val = load i32, ptr %50, align 4, !tbaa !42
  %51 = icmp sgt i32 %.val, 0
  br i1 %51, label %.lr.ph47, label %.critedge2

.lr.ph47:                                         ; preds = %.critedge
  %52 = getelementptr i8, ptr %49, i64 8
  %.val40.val = load ptr, ptr %52, align 8, !tbaa !29
  %wide.trip.count = zext nneg i32 %.val to i64
  br label %53

53:                                               ; preds = %.lr.ph47, %79
  %indvars.iv49 = phi i64 [ 0, %.lr.ph47 ], [ %indvars.iv.next50, %79 ]
  %54 = getelementptr inbounds nuw ptr, ptr %.val40.val, i64 %indvars.iv49
  %55 = load ptr, ptr %54, align 8, !tbaa !32
  %56 = icmp eq ptr %55, null
  br i1 %56, label %79, label %57

57:                                               ; preds = %53
  %58 = getelementptr inbounds nuw i8, ptr %55, i64 64
  %59 = load ptr, ptr %58, align 8, !tbaa !62
  %60 = ptrtoint ptr %59 to i64
  %61 = and i64 %60, -2
  %.not = icmp eq i64 %61, 0
  br i1 %.not, label %79, label %62

62:                                               ; preds = %57
  %63 = inttoptr i64 %61 to ptr
  %64 = getelementptr inbounds nuw i8, ptr %63, i64 64
  %65 = load ptr, ptr %64, align 8, !tbaa !62
  %66 = ptrtoint ptr %65 to i64
  %67 = and i64 %66, -2
  %.not37 = icmp eq i64 %67, 0
  br i1 %.not37, label %79, label %68

68:                                               ; preds = %62
  %69 = inttoptr i64 %67 to ptr
  %70 = getelementptr inbounds nuw i8, ptr %69, i64 36
  %71 = load i32, ptr %70, align 4, !tbaa !93
  %72 = sext i32 %71 to i64
  %73 = getelementptr inbounds float, ptr %48, i64 %72
  %74 = load float, ptr %73, align 4, !tbaa !35
  %75 = getelementptr inbounds nuw i8, ptr %55, i64 16
  %76 = load i32, ptr %75, align 8, !tbaa !33
  %77 = sext i32 %76 to i64
  %78 = getelementptr inbounds float, ptr %16, i64 %77
  store float %74, ptr %78, align 4, !tbaa !35
  br label %79

79:                                               ; preds = %53, %68, %62, %57
  %indvars.iv.next50 = add nuw nsw i64 %indvars.iv49, 1
  %exitcond.not = icmp eq i64 %indvars.iv.next50, %wide.trip.count
  br i1 %exitcond.not, label %.critedge2, label %53, !llvm.loop !96

.critedge2:                                       ; preds = %79, %.critedge
  %.not.i43 = icmp eq ptr %48, null
  br i1 %.not.i43, label %Vec_IntFree.exit, label %80

80:                                               ; preds = %.critedge2
  tail call void @free(ptr noundef nonnull %48) #15
  br label %Vec_IntFree.exit

Vec_IntFree.exit:                                 ; preds = %.critedge2, %80
  tail call void @free(ptr noundef nonnull %46) #15
  tail call void @Aig_ManStop(ptr noundef %45) #15
  tail call void @Abc_NtkDelete(ptr noundef %17) #15
  ret ptr %5
}